; Function Attrs: null_pointer_is_valid sspstrong uwtable
define internal i32 @dissect_mip6_nemo_opt_mnp(ptr noundef %0, ptr noundef %1, ptr noundef %2, ptr readnone captures(none) %3) #0 {
  %5 = alloca ptr, align 8
  %6 = alloca i32, align 4
  %7 = load i32, ptr @proto_mip6_option_mnp, align 4
  %8 = load i32, ptr @ett_mip6_nemo_opt_mnp, align 4
  call void @llvm.lifetime.start.p0(i64 8, ptr nonnull %5) #5
  %9 = tail call i32 @tvb_reported_length(ptr noundef %0)
  %10 = add i32 %9, -2
  call void @llvm.lifetime.start.p0(i64 4, ptr nonnull %6) #5
  %11 = call fastcc ptr @mip6_fixed_option_header(ptr noundef %2, ptr noundef %1, ptr noundef %0, i32 noundef %7, i32 noundef %8, ptr noundef nonnull %5, i32 noundef %10, i32 noundef 18)
  %12 = load i32, ptr @hf_mip6_nemo_mnp_pfl, align 4
  %13 = call ptr @proto_tree_add_item_ret_uint(ptr noundef %11, i32 noundef %12, ptr noundef %0, i32 noundef 3, i32 noundef 1, i32 noundef 0, ptr noundef nonnull %6)
  %14 = load i32, ptr @hf_mip6_nemo_mnp_mnp, align 4
  %15 = call ptr @proto_tree_add_item(ptr noundef %11, i32 noundef %14, ptr noundef %0, i32 noundef 4, i32 noundef 16, i32 noundef 0)
  %16 = load ptr, ptr %5, align 8
  %17 = getelementptr inbounds nuw i8, ptr %1, i64 408
  %18 = load ptr, ptr %17, align 8
  %19 = call ptr @tvb_address_to_str(ptr noundef %18, ptr noundef %0, i32 noundef 3, i32 noundef 4)
  %20 = load i32, ptr %6, align 4
  call void (ptr, ptr, ...) @proto_item_append_text(ptr noundef %16, ptr noundef nonnull @.str.754, ptr noundef %19, i32 noundef %20)
  %21 = call i32 @tvb_captured_length(ptr noundef %0)
  call void @llvm.lifetime.end.p0(i64 4, ptr nonnull %6) #5
  call void @llvm.lifetime.end.p0(i64 8, ptr nonnull %5) #5
  ret i32 %21
}